target datalayout = "e-m:e-p270:32:32-p271:32:32-p272:64:64-i64:64-i128:128-f80:128-n8:16:32:64-S128"
target triple = "x86_64-pc-linux-gnu"

%"class.cv::Mat" = type { i32, i32, i32, i32, ptr, ptr, ptr, ptr, ptr, ptr, %"struct.cv::MatSize", %"struct.cv::MatStep" }
%"struct.cv::MatSize" = type { ptr }
%"struct.cv::MatStep" = type { ptr, [2 x i64] }
%"class.cv::AutoBuffer" = type { ptr, i64, [72 x %"class.cv::Rect_"] }
%"class.cv::Rect_" = type { i32, i32, i32, i32 }
%"class.std::vector" = type { %"struct.std::_Vector_base" }
%"struct.std::_Vector_base" = type { %"struct.std::_Vector_base<int, std::allocator<int>>::_Vector_impl" }
%"struct.std::_Vector_base<int, std::allocator<int>>::_Vector_impl" = type { %"struct.std::_Vector_base<int, std::allocator<int>>::_Vector_impl_data" }
%"struct.std::_Vector_base<int, std::allocator<int>>::_Vector_impl_data" = type { ptr, ptr, ptr }
%"class.std::vector.4" = type { %"struct.std::_Vector_base.5" }
%"struct.std::_Vector_base.5" = type { %"struct.std::_Vector_base<std::pair<int, int>, std::allocator<std::pair<int, int>>>::_Vector_impl" }
%"struct.std::_Vector_base<std::pair<int, int>, std::allocator<std::pair<int, int>>>::_Vector_impl" = type { %"struct.std::_Vector_base<std::pair<int, int>, std::allocator<std::pair<int, int>>>::_Vector_impl_data" }
%"struct.std::_Vector_base<std::pair<int, int>, std::allocator<std::pair<int, int>>>::_Vector_impl_data" = type { ptr, ptr, ptr }
%"struct.std::pair" = type { i32, i32 }
%"class.cv::AutoBuffer.9" = type { ptr, i64, [264 x i32] }
%"class.cv::AutoBuffer.10" = type { ptr, i64, [1032 x i8] }
%"class.std::vector.11" = type { %"struct.std::_Vector_base.12" }
%"struct.std::_Vector_base.12" = type { %"struct.std::_Vector_base<cv::AutoBuffer<int>, std::allocator<cv::AutoBuffer<int>>>::_Vector_impl" }
%"struct.std::_Vector_base<cv::AutoBuffer<int>, std::allocator<cv::AutoBuffer<int>>>::_Vector_impl" = type { %"struct.std::_Vector_base<cv::AutoBuffer<int>, std::allocator<cv::AutoBuffer<int>>>::_Vector_impl_data" }
%"struct.std::_Vector_base<cv::AutoBuffer<int>, std::allocator<cv::AutoBuffer<int>>>::_Vector_impl_data" = type { ptr, ptr, ptr }
%"class.cv::ximgproc::ScanSegmentImpl" = type { %"class.cv::ximgproc::ScanSegment", float, i32, i32, i32, i32, i8, i32, i32, i32, float, i32, i32, float, float, i32, i32, %"class.cv::AutoBuffer", %"class.cv::AutoBuffer", %"class.cv::AutoBuffer", [8 x %"class.cv::Point_"], %"class.std::vector", %"class.std::vector.4", %"class.cv::AutoBuffer.9", %"class.cv::AutoBuffer.9", %"class.cv::AutoBuffer.10", %"class.std::vector.11", ptr, [8 x i32], %"struct.std::atomic", %"struct.std::atomic", %"class.cv::Mat", %"class.cv::Mat" }
%"class.cv::ximgproc::ScanSegment" = type { %"class.cv::Algorithm" }
%"class.cv::Algorithm" = type { ptr }
%"class.cv::Point_" = type { i32, i32 }
%"struct.std::atomic" = type { %"struct.std::__atomic_base" }
%"struct.std::__atomic_base" = type { i32 }
%"class.cv::Range" = type { i32, i32 }
%class.anon.29 = type { ptr }

; Function Attrs: inlinehint mustprogress nounwind uwtable
define linkonce_odr hidden noundef ptr @_ZN2cv10AutoBufferIiLm264EE4dataEv(ptr noundef nonnull align 8 dereferenceable(1072) %0) #9 comdat align 2 {
  %2 = alloca ptr, align 8
  store ptr %0, ptr %2, align 8, !tbaa !100
  %3 = load ptr, ptr %2, align 8
  %4 = getelementptr inbounds nuw %"class.cv::AutoBuffer.9", ptr %3, i32 0, i32 0
  %5 = load ptr, ptr %4, align 8, !tbaa !101
  ret ptr %5
}

; Function Attrs: inlinehint mustprogress nounwind uwtable
define linkonce_odr hidden noundef ptr @_ZN2cv10AutoBufferIhLm1032EE4dataEv(ptr noundef nonnull align 8 dereferenceable(1048) %0) #9 comdat align 2 {
  %2 = alloca ptr, align 8
  store ptr %0, ptr %2, align 8, !tbaa !103
  %3 = load ptr, ptr %2, align 8
  %4 = getelementptr inbounds nuw %"class.cv::AutoBuffer.10", ptr %3, i32 0, i32 0
  %5 = load ptr, ptr %4, align 8, !tbaa !105
  ret ptr %5
}

; Function Attrs: mustprogress uwtable
define hidden void @_ZN2cv8ximgproc15ScanSegmentImpl3OP4ERKSt4pairIiiE(ptr noundef nonnull align 8 dereferenceable(7144) %0, ptr noundef nonnull align 4 dereferenceable(8) %1) #6 align 2 {
  %3 = alloca ptr, align 8
  %4 = alloca ptr, align 8
  %5 = alloca i32, align 4
  store ptr %0, ptr %3, align 8, !tbaa !20
  store ptr %1, ptr %4, align 8, !tbaa !123
  %6 = load ptr, ptr %3, align 8
  call void @llvm.lifetime.start.p0(i64 4, ptr %5) #3
  %7 = load ptr, ptr %4, align 8, !tbaa !123
  %8 = getelementptr inbounds nuw %"struct.std::pair", ptr %7, i32 0, i32 0
  %9 = load i32, ptr %8, align 4, !tbaa !124
  store i32 %9, ptr %5, align 4, !tbaa !8
  br label %10

10:                                               ; preds = %50, %2
  %11 = load i32, ptr %5, align 4, !tbaa !8
  %12 = load ptr, ptr %4, align 8, !tbaa !123
  %13 = getelementptr inbounds nuw %"struct.std::pair", ptr %12, i32 0, i32 1
  %14 = load i32, ptr %13, align 4, !tbaa !126
  %15 = icmp slt i32 %11, %14
  br i1 %15, label %17, label %16

16:                                               ; preds = %10
  call void @llvm.lifetime.end.p0(i64 4, ptr %5) #3
  br label %53

17:                                               ; preds = %10
  %18 = getelementptr inbounds nuw %"class.cv::ximgproc::ScanSegmentImpl", ptr %6, i32 0, i32 25
  %19 = call noundef ptr @_ZN2cv10AutoBufferIhLm1032EE4dataEv(ptr noundef nonnull align 8 dereferenceable(1048) %18)
  %20 = load i32, ptr %5, align 4, !tbaa !8
  %21 = sext i32 %20 to i64
  %22 = getelementptr inbounds i8, ptr %19, i64 %21
  %23 = load i8, ptr %22, align 1, !tbaa !110
  %24 = zext i8 %23 to i32
  %25 = icmp eq i32 %24, 0
  br i1 %25, label %26, label %40

26:                                               ; preds = %17
  %27 = getelementptr inbounds nuw %"class.cv::ximgproc::ScanSegmentImpl", ptr %6, i32 0, i32 23
  %28 = call noundef ptr @_ZN2cv10AutoBufferIiLm264EE4dataEv(ptr noundef nonnull align 8 dereferenceable(1072) %27)
  %29 = load i32, ptr %5, align 4, !tbaa !8
  %30 = sext i32 %29 to i64
  %31 = getelementptr inbounds i32, ptr %28, i64 %30
  %32 = load i32, ptr %31, align 4, !tbaa !8
  %33 = sub nsw i32 %32, 1
  %34 = getelementptr inbounds nuw %"class.cv::ximgproc::ScanSegmentImpl", ptr %6, i32 0, i32 32
  %35 = getelementptr inbounds nuw %"class.cv::Mat", ptr %34, i32 0, i32 4
  %36 = load ptr, ptr %35, align 8, !tbaa !148
  %37 = load i32, ptr %5, align 4, !tbaa !8
  %38 = sext i32 %37 to i64
  %39 = getelementptr inbounds i32, ptr %36, i64 %38
  store i32 %33, ptr %39, align 4, !tbaa !8
  br label %49

40:                                               ; preds = %17
  %41 = getelementptr inbounds nuw %"class.cv::ximgproc::ScanSegmentImpl", ptr %6, i32 0, i32 32
  %42 = getelementptr inbounds nuw %"class.cv::Mat", ptr %41, i32 0, i32 4
  %43 = load ptr, ptr %42, align 8, !tbaa !148
  %44 = load i32, ptr %5, align 4, !tbaa !8
  %45 = sext i32 %44 to i64
  %46 = getelementptr inbounds i32, ptr %43, i64 %45
  %47 = load i32, ptr %46, align 4, !tbaa !8
  %48 = sub nsw i32 %47, 1
  store i32 %48, ptr %46, align 4, !tbaa !8
  br label %49

49:                                               ; preds = %40, %26
  br label %50

50:                                               ; preds = %49
  %51 = load i32, ptr %5, align 4, !tbaa !8
  %52 = add nsw i32 %51, 1
  store i32 %52, ptr %5, align 4, !tbaa !8
  br label %10, !llvm.loop !214

53:                                               ; preds = %16
  ret void
}

; Function Attrs: mustprogress nounwind uwtable
define linkonce_odr hidden noundef nonnull align 4 dereferenceable(8) ptr @_ZNSt6vectorISt4pairIiiESaIS1_EEixEm(ptr noundef nonnull align 8 dereferenceable(24) %0, i64 noundef %1) #4 comdat align 2 {
  %3 = alloca ptr, align 8
  %4 = alloca i64, align 8
  store ptr %0, ptr %3, align 8, !tbaa !98
  store i64 %1, ptr %4, align 8, !tbaa !111
  %5 = load ptr, ptr %3, align 8
  %6 = getelementptr inbounds nuw %"struct.std::_Vector_base.5", ptr %5, i32 0, i32 0
  %7 = getelementptr inbounds nuw %"struct.std::_Vector_base<std::pair<int, int>, std::allocator<std::pair<int, int>>>::_Vector_impl_data", ptr %6, i32 0, i32 0
  %8 = load ptr, ptr %7, align 8, !tbaa !121
  %9 = load i64, ptr %4, align 8, !tbaa !111
  %10 = getelementptr inbounds nuw %"struct.std::pair", ptr %8, i64 %9
  ret ptr %10
}

; Function Attrs: inlinehint mustprogress uwtable
define internal void @"_ZZN2cv8ximgproc15ScanSegmentImpl7iterateERKNS_11_InputArrayEENK3$_3clERKNS_5RangeE"(ptr noundef nonnull align 8 dereferenceable(8) %0, ptr noundef nonnull align 4 dereferenceable(8) %1) #8 align 2 {
  %3 = alloca ptr, align 8
  %4 = alloca ptr, align 8
  %5 = alloca i32, align 4
  store ptr %0, ptr %3, align 8, !tbaa !186
  store ptr %1, ptr %4, align 8, !tbaa !179
  %6 = load ptr, ptr %3, align 8
  %7 = getelementptr inbounds nuw %class.anon.29, ptr %6, i32 0, i32 0
  %8 = load ptr, ptr %7, align 8, !tbaa !151
  call void @llvm.lifetime.start.p0(i64 4, ptr %5) #3
  %9 = load ptr, ptr %4, align 8, !tbaa !179
  %10 = getelementptr inbounds nuw %"class.cv::Range", ptr %9, i32 0, i32 0
  %11 = load i32, ptr %10, align 4, !tbaa !183
  store i32 %11, ptr %5, align 4, !tbaa !8
  br label %12

12:                                               ; preds = %24, %2
  %13 = load i32, ptr %5, align 4, !tbaa !8
  %14 = load ptr, ptr %4, align 8, !tbaa !179
  %15 = getelementptr inbounds nuw %"class.cv::Range", ptr %14, i32 0, i32 1
  %16 = load i32, ptr %15, align 4, !tbaa !185
  %17 = icmp slt i32 %13, %16
  br i1 %17, label %19, label %18

18:                                               ; preds = %12
  call void @llvm.lifetime.end.p0(i64 4, ptr %5) #3
  br label %27

19:                                               ; preds = %12
  %20 = getelementptr inbounds nuw %"class.cv::ximgproc::ScanSegmentImpl", ptr %8, i32 0, i32 22
  %21 = load i32, ptr %5, align 4, !tbaa !8
  %22 = sext i32 %21 to i64
  %23 = call noundef nonnull align 4 dereferenceable(8) ptr @_ZNSt6vectorISt4pairIiiESaIS1_EEixEm(ptr noundef nonnull align 8 dereferenceable(24) %20, i64 noundef %22) #3
  call void @_ZN2cv8ximgproc15ScanSegmentImpl3OP4ERKSt4pairIiiE(ptr noundef nonnull align 8 dereferenceable(7144) %8, ptr noundef nonnull align 4 dereferenceable(8) %23)
  br label %24

24:                                               ; preds = %19
  %25 = load i32, ptr %5, align 4, !tbaa !8
  %26 = add nsw i32 %25, 1
  store i32 %26, ptr %5, align 4, !tbaa !8
  br label %12, !llvm.loop !426

27:                                               ; preds = %18
  ret void
}

; Function Attrs: mustprogress nounwind uwtable
define linkonce_odr hidden noundef ptr @_ZNKSt9_Any_data9_M_accessEv(ptr noundef nonnull align 8 dereferenceable(16) %0) #4 comdat align 2 {
  %2 = alloca ptr, align 8
  store ptr %0, ptr %2, align 8, !tbaa !387
  %3 = load ptr, ptr %2, align 8
  %4 = getelementptr inbounds [16 x i8], ptr %3, i64 0, i64 0
  ret ptr %4
}

; Function Attrs: mustprogress uwtable
define internal void @"_ZSt13__invoke_implIvRZN2cv8ximgproc15ScanSegmentImpl7iterateERKNS0_11_InputArrayEE3$_3JRKNS0_5RangeEEET_St14__invoke_otherOT0_DpOT1_"(ptr noundef nonnull align 8 dereferenceable(8) %0, ptr noundef nonnull align 4 dereferenceable(8) %1) #6 {
  %3 = alloca ptr, align 8
  %4 = alloca ptr, align 8
  store ptr %0, ptr %3, align 8, !tbaa !186
  store ptr %1, ptr %4, align 8, !tbaa !179
  %5 = load ptr, ptr %3, align 8, !tbaa !186
  %6 = load ptr, ptr %4, align 8, !tbaa !179
  call void @"_ZZN2cv8ximgproc15ScanSegmentImpl7iterateERKNS_11_InputArrayEENK3$_3clERKNS_5RangeE"(ptr noundef nonnull align 8 dereferenceable(8) %5, ptr noundef nonnull align 4 dereferenceable(8) %6)
  ret void
}

; Function Attrs: mustprogress nounwind uwtable
define internal noundef nonnull align 8 dereferenceable(8) ptr @"_ZNKSt9_Any_data9_M_accessIZN2cv8ximgproc15ScanSegmentImpl7iterateERKNS1_11_InputArrayEE3$_3EERKT_v"(ptr noundef nonnull align 8 dereferenceable(16) %0) #4 align 2 {
  %2 = alloca ptr, align 8
  store ptr %0, ptr %2, align 8, !tbaa !387
  %3 = load ptr, ptr %2, align 8
  %4 = call noundef ptr @_ZNKSt9_Any_data9_M_accessEv(ptr noundef nonnull align 8 dereferenceable(16) %3) #3
  ret ptr %4
}

; Function Attrs: mustprogress uwtable
define internal void @"_ZSt10__invoke_rIvRZN2cv8ximgproc15ScanSegmentImpl7iterateERKNS0_11_InputArrayEE3$_3JRKNS0_5RangeEEENSt9enable_ifIXsr6__and_ISt7is_voidIT_ESt14__is_invocableIT0_JDpT1_EEEE5valueESD_E4typeEOSG_DpOSH_"(ptr noundef nonnull align 8 dereferenceable(8) %0, ptr noundef nonnull align 4 dereferenceable(8) %1) #6 {
  %3 = alloca ptr, align 8
  %4 = alloca ptr, align 8
  store ptr %0, ptr %3, align 8, !tbaa !186
  store ptr %1, ptr %4, align 8, !tbaa !179
  %5 = load ptr, ptr %3, align 8, !tbaa !186
  %6 = load ptr, ptr %4, align 8, !tbaa !179
  call void @"_ZSt13__invoke_implIvRZN2cv8ximgproc15ScanSegmentImpl7iterateERKNS0_11_InputArrayEE3$_3JRKNS0_5RangeEEET_St14__invoke_otherOT0_DpOT1_"(ptr noundef nonnull align 8 dereferenceable(8) %5, ptr noundef nonnull align 4 dereferenceable(8) %6)
  ret void
}

; Function Attrs: mustprogress nounwind uwtable
define internal noundef ptr @"_ZNSt14_Function_base13_Base_managerIZN2cv8ximgproc15ScanSegmentImpl7iterateERKNS1_11_InputArrayEE3$_3E14_M_get_pointerERKSt9_Any_data"(ptr noundef nonnull align 8 dereferenceable(16) %0) #4 align 2 {
  %2 = alloca ptr, align 8
  %3 = alloca ptr, align 8
  store ptr %0, ptr %2, align 8, !tbaa !387
  call void @llvm.lifetime.start.p0(i64 8, ptr %3) #3
  %4 = load ptr, ptr %2, align 8, !tbaa !387
  %5 = call noundef nonnull align 8 dereferenceable(8) ptr @"_ZNKSt9_Any_data9_M_accessIZN2cv8ximgproc15ScanSegmentImpl7iterateERKNS1_11_InputArrayEE3$_3EERKT_v"(ptr noundef nonnull align 8 dereferenceable(16) %4) #3
  store ptr %5, ptr %3, align 8, !tbaa !186
  %6 = load ptr, ptr %3, align 8, !tbaa !186
  call void @llvm.lifetime.end.p0(i64 8, ptr %3) #3
  ret ptr %6
}

; Function Attrs: mustprogress uwtable
define internal void @"_ZNSt17_Function_handlerIFvRKN2cv5RangeEEZNS0_8ximgproc15ScanSegmentImpl7iterateERKNS0_11_InputArrayEE3$_3E9_M_invokeERKSt9_Any_dataS3_"(ptr noundef nonnull align 8 dereferenceable(16) %0, ptr noundef nonnull align 4 dereferenceable(8) %1) #6 align 2 {
  %3 = alloca ptr, align 8
  %4 = alloca ptr, align 8
  store ptr %0, ptr %3, align 8, !tbaa !387
  store ptr %1, ptr %4, align 8, !tbaa !179
  %5 = load ptr, ptr %3, align 8, !tbaa !387
  %6 = call noundef ptr @"_ZNSt14_Function_base13_Base_managerIZN2cv8ximgproc15ScanSegmentImpl7iterateERKNS1_11_InputArrayEE3$_3E14_M_get_pointerERKSt9_Any_data"(ptr noundef nonnull align 8 dereferenceable(16) %5) #3
  %7 = load ptr, ptr %4, align 8, !tbaa !179
  call void @"_ZSt10__invoke_rIvRZN2cv8ximgproc15ScanSegmentImpl7iterateERKNS0_11_InputArrayEE3$_3JRKNS0_5RangeEEENSt9enable_ifIXsr6__and_ISt7is_voidIT_ESt14__is_invocableIT0_JDpT1_EEEE5valueESD_E4typeEOSG_DpOSH_"(ptr noundef nonnull align 8 dereferenceable(8) %6, ptr noundef nonnull align 4 dereferenceable(8) %7)
  ret void
}