; Function Attrs: mustprogress nofree norecurse nosync nounwind memory(readwrite, inaccessiblemem: none) uwtable
define internal void @"_ZNSt17_Function_handlerIFvRKN2cv5RangeEEZNS0_8ximgproc15ScanSegmentImpl7iterateERKNS0_11_InputArrayEE3$_3E9_M_invokeERKSt9_Any_dataS3_"(ptr noundef nonnull readonly align 8 captures(none) dereferenceable(16) %0, ptr noundef nonnull readonly align 4 captures(none) dereferenceable(8) %1) #17 align 2 {
  %3 = load i32, ptr %1, align 4, !tbaa !138
  %4 = getelementptr inbounds nuw i8, ptr %1, i64 4
  %5 = load i32, ptr %4, align 4, !tbaa !140
  %6 = icmp slt i32 %3, %5
  br i1 %6, label %.lr.ph.i.i.i, label %"_ZSt10__invoke_rIvRZN2cv8ximgproc15ScanSegmentImpl7iterateERKNS0_11_InputArrayEE3$_3JRKNS0_5RangeEEENSt9enable_ifIXsr6__and_ISt7is_voidIT_ESt14__is_invocableIT0_JDpT1_EEEE5valueESD_E4typeEOSG_DpOSH_.exit"

.lr.ph.i.i.i:                                     ; preds = %2
  %.val = load ptr, ptr %0, align 8, !tbaa !219
  %7 = getelementptr inbounds nuw i8, ptr %.val, i64 3664
  %8 = load ptr, ptr %7, align 8, !tbaa !95
  %9 = getelementptr inbounds nuw i8, ptr %.val, i64 5832
  %10 = getelementptr inbounds nuw i8, ptr %.val, i64 7064
  %11 = getelementptr inbounds nuw i8, ptr %.val, i64 3688
  %12 = sext i32 %3 to i64
  br label %13

13:                                               ; preds = %_ZN2cv8ximgproc15ScanSegmentImpl3OP4ERKSt4pairIiiE.exit.i.i.i, %.lr.ph.i.i.i
  %14 = phi i32 [ %5, %.lr.ph.i.i.i ], [ %41, %_ZN2cv8ximgproc15ScanSegmentImpl3OP4ERKSt4pairIiiE.exit.i.i.i ]
  %indvars.iv.i.i.i = phi i64 [ %12, %.lr.ph.i.i.i ], [ %indvars.iv.next.i.i.i, %_ZN2cv8ximgproc15ScanSegmentImpl3OP4ERKSt4pairIiiE.exit.i.i.i ]
  %15 = getelementptr inbounds nuw %"struct.std::pair", ptr %8, i64 %indvars.iv.i.i.i
  %16 = load i32, ptr %15, align 4, !tbaa !98
  %17 = getelementptr inbounds nuw i8, ptr %15, i64 4
  %18 = load i32, ptr %17, align 4, !tbaa !100
  %19 = icmp slt i32 %16, %18
  br i1 %19, label %.lr.ph.i.i.i.i, label %_ZN2cv8ximgproc15ScanSegmentImpl3OP4ERKSt4pairIiiE.exit.i.i.i

.lr.ph.i.i.i.i:                                   ; preds = %13
  %20 = load ptr, ptr %9, align 8, !tbaa !66
  %21 = load ptr, ptr %10, align 8
  %22 = load ptr, ptr %11, align 8
  %23 = sext i32 %16 to i64
  br label %24

24:                                               ; preds = %37, %.lr.ph.i.i.i.i
  %indvars.iv.i.i.i.i = phi i64 [ %23, %.lr.ph.i.i.i.i ], [ %indvars.iv.next.i.i.i.i, %37 ]
  %25 = getelementptr inbounds i8, ptr %20, i64 %indvars.iv.i.i.i.i
  %26 = load i8, ptr %25, align 1, !tbaa !103
  %27 = icmp eq i8 %26, 0
  br i1 %27, label %28, label %33

28:                                               ; preds = %24
  %29 = getelementptr inbounds i32, ptr %22, i64 %indvars.iv.i.i.i.i
  %30 = load i32, ptr %29, align 4, !tbaa !76
  %31 = add nsw i32 %30, -1
  %32 = getelementptr inbounds i32, ptr %21, i64 %indvars.iv.i.i.i.i
  store i32 %31, ptr %32, align 4, !tbaa !76
  br label %37

33:                                               ; preds = %24
  %34 = getelementptr inbounds i32, ptr %21, i64 %indvars.iv.i.i.i.i
  %35 = load i32, ptr %34, align 4, !tbaa !76
  %36 = add nsw i32 %35, -1
  store i32 %36, ptr %34, align 4, !tbaa !76
  br label %37

37:                                               ; preds = %33, %28
  %indvars.iv.next.i.i.i.i = add nsw i64 %indvars.iv.i.i.i.i, 1
  %38 = load i32, ptr %17, align 4, !tbaa !100
  %39 = sext i32 %38 to i64
  %40 = icmp slt i64 %indvars.iv.next.i.i.i.i, %39
  br i1 %40, label %24, label %_ZN2cv8ximgproc15ScanSegmentImpl3OP4ERKSt4pairIiiE.exit.loopexit.i.i.i, !llvm.loop !185

_ZN2cv8ximgproc15ScanSegmentImpl3OP4ERKSt4pairIiiE.exit.loopexit.i.i.i: ; preds = %37
  %.pre.i.i.i = load i32, ptr %4, align 4, !tbaa !140
  br label %_ZN2cv8ximgproc15ScanSegmentImpl3OP4ERKSt4pairIiiE.exit.i.i.i

_ZN2cv8ximgproc15ScanSegmentImpl3OP4ERKSt4pairIiiE.exit.i.i.i: ; preds = %_ZN2cv8ximgproc15ScanSegmentImpl3OP4ERKSt4pairIiiE.exit.loopexit.i.i.i, %13
  %41 = phi i32 [ %.pre.i.i.i, %_ZN2cv8ximgproc15ScanSegmentImpl3OP4ERKSt4pairIiiE.exit.loopexit.i.i.i ], [ %14, %13 ]
  %indvars.iv.next.i.i.i = add nsw i64 %indvars.iv.i.i.i, 1
  %42 = sext i32 %41 to i64
  %43 = icmp slt i64 %indvars.iv.next.i.i.i, %42
  br i1 %43, label %13, label %"_ZSt10__invoke_rIvRZN2cv8ximgproc15ScanSegmentImpl7iterateERKNS0_11_InputArrayEE3$_3JRKNS0_5RangeEEENSt9enable_ifIXsr6__and_ISt7is_voidIT_ESt14__is_invocableIT0_JDpT1_EEEE5valueESD_E4typeEOSG_DpOSH_.exit", !llvm.loop !221

"_ZSt10__invoke_rIvRZN2cv8ximgproc15ScanSegmentImpl7iterateERKNS0_11_InputArrayEE3$_3JRKNS0_5RangeEEENSt9enable_ifIXsr6__and_ISt7is_voidIT_ESt14__is_invocableIT0_JDpT1_EEEE5valueESD_E4typeEOSG_DpOSH_.exit": ; preds = %_ZN2cv8ximgproc15ScanSegmentImpl3OP4ERKSt4pairIiiE.exit.i.i.i, %2
  ret void
}